target datalayout = "e-m:e-p270:32:32-p271:32:32-p272:64:64-i64:64-i128:128-f80:128-n8:16:32:64-S128"
target triple = "x86_64-pc-linux-gnu"

%struct.Gia_Man_t_ = type { ptr, ptr, i32, i32, i32, i32, ptr, ptr, i32, i32, i32, ptr, ptr, %struct.Vec_Int_t_, %struct.Vec_Int_t_, i32, i32, i32, %struct.Vec_Int_t_, ptr, ptr, ptr, i32, i32, i32, i32, ptr, ptr, ptr, ptr, ptr, i32, i32, ptr, i32, ptr, ptr, ptr, ptr, ptr, ptr, ptr, ptr, ptr, ptr, ptr, ptr, ptr, ptr, ptr, ptr, ptr, ptr, %struct.Vec_Int_t_, %struct.Vec_Int_t_, ptr, ptr, ptr, ptr, ptr, ptr, ptr, ptr, ptr, ptr, ptr, ptr, ptr, ptr, ptr, ptr, ptr, ptr, ptr, ptr, ptr, i32, float, float, ptr, ptr, i32, ptr, ptr, ptr, ptr, ptr, ptr, ptr, ptr, ptr, ptr, ptr, ptr, ptr, ptr, ptr, i64, i64, ptr, ptr, i32, i32, i32, i32, i32, i32, i32, i32, i32, i32, i32, i32, ptr, ptr, ptr, ptr, ptr, ptr, ptr, ptr, i32, i32, i32, ptr, i32, i32, ptr, ptr, ptr, ptr, ptr, ptr, i32, i32, ptr, %struct.Vec_Int_t_, %struct.Vec_Int_t_, %struct.Vec_Int_t_, ptr, ptr, ptr, i32, i32, i32, i32, ptr, ptr, ptr, ptr, ptr }
%struct.Vec_Int_t_ = type { i32, i32, ptr }
%struct.Gia_Obj_t_ = type <{ i64, i32 }>
%struct.Gia_Rpr_t_ = type { i32 }

@.str.49 = private unnamed_addr constant [31 x i8] c"Verification of reprs failed.\0A\00", align 1
@.str.50 = private unnamed_addr constant [34 x i8] c"Verification of reprs succeeded.\0A\00", align 1
@.str.51 = private unnamed_addr constant [31 x i8] c"Verification of nexts failed.\0A\00", align 1
@.str.52 = private unnamed_addr constant [34 x i8] c"Verification of nexts succeeded.\0A\00", align 1

; Function Attrs: inlinehint nounwind uwtable
define internal i32 @Gia_ManObjNum(ptr noundef %0) #1 {
  %2 = alloca ptr, align 8
  store ptr %0, ptr %2, align 8, !tbaa !3
  %3 = load ptr, ptr %2, align 8, !tbaa !3
  %4 = getelementptr inbounds nuw %struct.Gia_Man_t_, ptr %3, i32 0, i32 4
  %5 = load i32, ptr %4, align 8, !tbaa !37
  ret i32 %5
}

; Function Attrs: inlinehint nounwind uwtable
define internal i32 @Abc_Lit2Var(i32 noundef %0) #1 {
  %2 = alloca i32, align 4
  store i32 %0, ptr %2, align 4, !tbaa !33
  %3 = load i32, ptr %2, align 4, !tbaa !33
  %4 = ashr i32 %3, 1
  ret i32 %4
}

; Function Attrs: inlinehint nounwind uwtable
define internal i32 @Abc_Var2Lit(i32 noundef %0, i32 noundef %1) #1 {
  %3 = alloca i32, align 4
  %4 = alloca i32, align 4
  store i32 %0, ptr %3, align 4, !tbaa !33
  store i32 %1, ptr %4, align 4, !tbaa !33
  %5 = load i32, ptr %3, align 4, !tbaa !33
  %6 = load i32, ptr %3, align 4, !tbaa !33
  %7 = add nsw i32 %5, %6
  %8 = load i32, ptr %4, align 4, !tbaa !33
  %9 = add nsw i32 %7, %8
  ret i32 %9
}

; Function Attrs: inlinehint nounwind uwtable
define internal ptr @Gia_ManObj(ptr noundef %0, i32 noundef %1) #1 {
  %3 = alloca ptr, align 8
  %4 = alloca i32, align 4
  store ptr %0, ptr %3, align 8, !tbaa !3
  store i32 %1, ptr %4, align 4, !tbaa !33
  %5 = load ptr, ptr %3, align 8, !tbaa !3
  %6 = getelementptr inbounds nuw %struct.Gia_Man_t_, ptr %5, i32 0, i32 6
  %7 = load ptr, ptr %6, align 8, !tbaa !43
  %8 = load i32, ptr %4, align 4, !tbaa !33
  %9 = sext i32 %8 to i64
  %10 = getelementptr inbounds %struct.Gia_Obj_t_, ptr %7, i64 %9
  ret ptr %10
}

; Function Attrs: nounwind uwtable
define void @Gia_ManTransferTest(ptr noundef %0) #0 {
  %2 = alloca ptr, align 8
  %3 = alloca ptr, align 8
  %4 = alloca i32, align 4
  %5 = alloca ptr, align 8
  %6 = alloca ptr, align 8
  %7 = alloca ptr, align 8
  store ptr %0, ptr %2, align 8, !tbaa !3
  call void @llvm.lifetime.start.p0(i64 8, ptr %3) #12
  call void @llvm.lifetime.start.p0(i64 4, ptr %4) #12
  call void @llvm.lifetime.start.p0(i64 8, ptr %5) #12
  %8 = load ptr, ptr %2, align 8, !tbaa !3
  %9 = getelementptr inbounds nuw %struct.Gia_Man_t_, ptr %8, i32 0, i32 27
  %10 = load ptr, ptr %9, align 8, !tbaa !53
  store ptr %10, ptr %5, align 8, !tbaa !233
  call void @llvm.lifetime.start.p0(i64 8, ptr %6) #12
  %11 = load ptr, ptr %2, align 8, !tbaa !3
  %12 = getelementptr inbounds nuw %struct.Gia_Man_t_, ptr %11, i32 0, i32 28
  %13 = load ptr, ptr %12, align 8, !tbaa !56
  store ptr %13, ptr %6, align 8, !tbaa !59
  call void @llvm.lifetime.start.p0(i64 8, ptr %7) #12
  %14 = load ptr, ptr %2, align 8, !tbaa !3
  %15 = call ptr @Gia_ManChangeOrder(ptr noundef %14)
  store ptr %15, ptr %7, align 8, !tbaa !3
  %16 = load ptr, ptr %2, align 8, !tbaa !3
  %17 = load ptr, ptr %7, align 8, !tbaa !3
  call void @Gia_ManTransferEquivs(ptr noundef %16, ptr noundef %17)
  %18 = load ptr, ptr %2, align 8, !tbaa !3
  %19 = getelementptr inbounds nuw %struct.Gia_Man_t_, ptr %18, i32 0, i32 27
  store ptr null, ptr %19, align 8, !tbaa !53
  %20 = load ptr, ptr %2, align 8, !tbaa !3
  %21 = getelementptr inbounds nuw %struct.Gia_Man_t_, ptr %20, i32 0, i32 28
  store ptr null, ptr %21, align 8, !tbaa !56
  store i32 0, ptr %4, align 4, !tbaa !33
  br label %22

22:                                               ; preds = %45, %1
  %23 = load i32, ptr %4, align 4, !tbaa !33
  %24 = load ptr, ptr %2, align 8, !tbaa !3
  %25 = getelementptr inbounds nuw %struct.Gia_Man_t_, ptr %24, i32 0, i32 4
  %26 = load i32, ptr %25, align 8, !tbaa !37
  %27 = icmp slt i32 %23, %26
  br i1 %27, label %28, label %33

28:                                               ; preds = %22
  %29 = load ptr, ptr %2, align 8, !tbaa !3
  %30 = load i32, ptr %4, align 4, !tbaa !33
  %31 = call ptr @Gia_ManObj(ptr noundef %29, i32 noundef %30)
  store ptr %31, ptr %3, align 8, !tbaa !38
  %32 = icmp ne ptr %31, null
  br label %33

33:                                               ; preds = %28, %22
  %34 = phi i1 [ false, %22 ], [ %32, %28 ]
  br i1 %34, label %35, label %48

35:                                               ; preds = %33
  %36 = load i32, ptr %4, align 4, !tbaa !33
  %37 = call i32 @Abc_Var2Lit(i32 noundef %36, i32 noundef 0)
  %38 = load ptr, ptr %7, align 8, !tbaa !3
  %39 = load ptr, ptr %3, align 8, !tbaa !38
  %40 = getelementptr inbounds nuw %struct.Gia_Obj_t_, ptr %39, i32 0, i32 1
  %41 = load i32, ptr %40, align 4, !tbaa !39
  %42 = call i32 @Abc_Lit2Var(i32 noundef %41)
  %43 = call ptr @Gia_ManObj(ptr noundef %38, i32 noundef %42)
  %44 = getelementptr inbounds nuw %struct.Gia_Obj_t_, ptr %43, i32 0, i32 1
  store i32 %37, ptr %44, align 4, !tbaa !39
  br label %45

45:                                               ; preds = %35
  %46 = load i32, ptr %4, align 4, !tbaa !33
  %47 = add nsw i32 %46, 1
  store i32 %47, ptr %4, align 4, !tbaa !33
  br label %22, !llvm.loop !234

48:                                               ; preds = %33
  %49 = load ptr, ptr %7, align 8, !tbaa !3
  %50 = load ptr, ptr %2, align 8, !tbaa !3
  call void @Gia_ManTransferEquivs(ptr noundef %49, ptr noundef %50)
  store i32 0, ptr %4, align 4, !tbaa !33
  br label %51

51:                                               ; preds = %64, %48
  %52 = load i32, ptr %4, align 4, !tbaa !33
  %53 = load ptr, ptr %2, align 8, !tbaa !3
  %54 = call i32 @Gia_ManObjNum(ptr noundef %53)
  %55 = icmp slt i32 %52, %54
  br i1 %55, label %56, label %67

56:                                               ; preds = %51
  %57 = load ptr, ptr %5, align 8, !tbaa !233
  %58 = load i32, ptr %4, align 4, !tbaa !33
  %59 = sext i32 %58 to i64
  %60 = getelementptr inbounds %struct.Gia_Rpr_t_, ptr %57, i64 %59
  %61 = load i32, ptr %60, align 4
  %62 = and i32 %61, -268435457
  %63 = or i32 %62, 0
  store i32 %63, ptr %60, align 4
  br label %64

64:                                               ; preds = %56
  %65 = load i32, ptr %4, align 4, !tbaa !33
  %66 = add nsw i32 %65, 1
  store i32 %66, ptr %4, align 4, !tbaa !33
  br label %51, !llvm.loop !235

67:                                               ; preds = %51
  %68 = load ptr, ptr %2, align 8, !tbaa !3
  %69 = getelementptr inbounds nuw %struct.Gia_Man_t_, ptr %68, i32 0, i32 27
  %70 = load ptr, ptr %69, align 8, !tbaa !53
  %71 = load ptr, ptr %5, align 8, !tbaa !233
  %72 = load ptr, ptr %2, align 8, !tbaa !3
  %73 = call i32 @Gia_ManObjNum(ptr noundef %72)
  %74 = sext i32 %73 to i64
  %75 = mul i64 4, %74
  %76 = call i32 @memcmp(ptr noundef %70, ptr noundef %71, i64 noundef %75) #14
  %77 = icmp ne i32 %76, 0
  br i1 %77, label %78, label %80

78:                                               ; preds = %67
  %79 = call i32 (ptr, ...) @printf(ptr noundef @.str.49)
  br label %82

80:                                               ; preds = %67
  %81 = call i32 (ptr, ...) @printf(ptr noundef @.str.50)
  br label %82

82:                                               ; preds = %80, %78
  %83 = load ptr, ptr %2, align 8, !tbaa !3
  %84 = getelementptr inbounds nuw %struct.Gia_Man_t_, ptr %83, i32 0, i32 28
  %85 = load ptr, ptr %84, align 8, !tbaa !56
  %86 = load ptr, ptr %6, align 8, !tbaa !59
  %87 = load ptr, ptr %2, align 8, !tbaa !3
  %88 = call i32 @Gia_ManObjNum(ptr noundef %87)
  %89 = sext i32 %88 to i64
  %90 = mul i64 4, %89
  %91 = call i32 @memcmp(ptr noundef %85, ptr noundef %86, i64 noundef %90) #14
  %92 = icmp ne i32 %91, 0
  br i1 %92, label %93, label %95

93:                                               ; preds = %82
  %94 = call i32 (ptr, ...) @printf(ptr noundef @.str.51)
  br label %97

95:                                               ; preds = %82
  %96 = call i32 (ptr, ...) @printf(ptr noundef @.str.52)
  br label %97

97:                                               ; preds = %95, %93
  %98 = load ptr, ptr %7, align 8, !tbaa !3
  %99 = getelementptr inbounds nuw %struct.Gia_Man_t_, ptr %98, i32 0, i32 27
  %100 = load ptr, ptr %99, align 8, !tbaa !53
  %101 = icmp ne ptr %100, null
  br i1 %101, label %102, label %108

102:                                              ; preds = %97
  %103 = load ptr, ptr %7, align 8, !tbaa !3
  %104 = getelementptr inbounds nuw %struct.Gia_Man_t_, ptr %103, i32 0, i32 27
  %105 = load ptr, ptr %104, align 8, !tbaa !53
  call void @free(ptr noundef %105) #12
  %106 = load ptr, ptr %7, align 8, !tbaa !3
  %107 = getelementptr inbounds nuw %struct.Gia_Man_t_, ptr %106, i32 0, i32 27
  store ptr null, ptr %107, align 8, !tbaa !53
  br label %109

108:                                              ; preds = %97
  br label %109

109:                                              ; preds = %108, %102
  %110 = load ptr, ptr %7, align 8, !tbaa !3
  %111 = getelementptr inbounds nuw %struct.Gia_Man_t_, ptr %110, i32 0, i32 28
  %112 = load ptr, ptr %111, align 8, !tbaa !56
  %113 = icmp ne ptr %112, null
  br i1 %113, label %114, label %120

114:                                              ; preds = %109
  %115 = load ptr, ptr %7, align 8, !tbaa !3
  %116 = getelementptr inbounds nuw %struct.Gia_Man_t_, ptr %115, i32 0, i32 28
  %117 = load ptr, ptr %116, align 8, !tbaa !56
  call void @free(ptr noundef %117) #12
  %118 = load ptr, ptr %7, align 8, !tbaa !3
  %119 = getelementptr inbounds nuw %struct.Gia_Man_t_, ptr %118, i32 0, i32 28
  store ptr null, ptr %119, align 8, !tbaa !56
  br label %121

120:                                              ; preds = %109
  br label %121

121:                                              ; preds = %120, %114
  %122 = load ptr, ptr %5, align 8, !tbaa !233
  %123 = icmp ne ptr %122, null
  br i1 %123, label %124, label %126

124:                                              ; preds = %121
  %125 = load ptr, ptr %5, align 8, !tbaa !233
  call void @free(ptr noundef %125) #12
  store ptr null, ptr %5, align 8, !tbaa !233
  br label %127

126:                                              ; preds = %121
  br label %127

127:                                              ; preds = %126, %124
  %128 = load ptr, ptr %6, align 8, !tbaa !59
  %129 = icmp ne ptr %128, null
  br i1 %129, label %130, label %132

130:                                              ; preds = %127
  %131 = load ptr, ptr %6, align 8, !tbaa !59
  call void @free(ptr noundef %131) #12
  store ptr null, ptr %6, align 8, !tbaa !59
  br label %133

132:                                              ; preds = %127
  br label %133

133:                                              ; preds = %132, %130
  %134 = load ptr, ptr %7, align 8, !tbaa !3
  call void @Gia_ManStop(ptr noundef %134)
  call void @llvm.lifetime.end.p0(i64 8, ptr %7) #12
  call void @llvm.lifetime.end.p0(i64 8, ptr %6) #12
  call void @llvm.lifetime.end.p0(i64 8, ptr %5) #12
  call void @llvm.lifetime.end.p0(i64 4, ptr %4) #12
  call void @llvm.lifetime.end.p0(i64 8, ptr %3) #12
  ret void
}