; Function Attrs: nounwind uwtable
define void @Gia_ManTransferTest(ptr noundef %0) local_unnamed_addr #0 {
  %2 = getelementptr inbounds nuw i8, ptr %0, i64 192
  %3 = load ptr, ptr %2, align 8, !tbaa !49
  %4 = getelementptr inbounds nuw i8, ptr %0, i64 200
  %5 = load ptr, ptr %4, align 8, !tbaa !54
  %6 = tail call ptr @Gia_ManChangeOrder(ptr noundef %0)
  tail call void @Gia_ManTransferEquivs(ptr noundef %0, ptr noundef %6)
  %7 = getelementptr inbounds nuw i8, ptr %0, i64 24
  tail call void @llvm.memset.p0.i64(ptr noundef nonnull align 8 dereferenceable(16) %2, i8 0, i64 16, i1 false)
  %8 = load i32, ptr %7, align 8, !tbaa !12
  %9 = icmp sgt i32 %8, 0
  br i1 %9, label %.lr.ph, label %.critedge

.lr.ph:                                           ; preds = %1
  %10 = getelementptr i8, ptr %0, i64 32
  %.val56 = load ptr, ptr %10, align 8, !tbaa !36
  %.not = icmp eq ptr %.val56, null
  br i1 %.not, label %.critedge, label %.lr.ph.split

.lr.ph.split:                                     ; preds = %.lr.ph
  %11 = getelementptr i8, ptr %6, i64 32
  %.val55 = load ptr, ptr %11, align 8, !tbaa !36
  %wide.trip.count = zext nneg i32 %8 to i64
  br label %12

12:                                               ; preds = %.lr.ph.split, %12
  %indvars.iv = phi i64 [ 0, %.lr.ph.split ], [ %indvars.iv.next, %12 ]
  %13 = getelementptr inbounds nuw %struct.Gia_Obj_t_, ptr %.val56, i64 %indvars.iv, i32 1
  %14 = load i32, ptr %13, align 4, !tbaa !37
  %15 = ashr i32 %14, 1
  %16 = sext i32 %15 to i64
  %17 = getelementptr inbounds %struct.Gia_Obj_t_, ptr %.val55, i64 %16, i32 1
  %indvars.iv.tr = trunc i64 %indvars.iv to i32
  %18 = shl i32 %indvars.iv.tr, 1
  store i32 %18, ptr %17, align 4, !tbaa !37
  %indvars.iv.next = add nuw nsw i64 %indvars.iv, 1
  %exitcond.not = icmp eq i64 %indvars.iv.next, %wide.trip.count
  br i1 %exitcond.not, label %.critedge, label %12, !llvm.loop !217

.critedge:                                        ; preds = %12, %.lr.ph, %1
  tail call void @Gia_ManTransferEquivs(ptr noundef %6, ptr noundef nonnull %0)
  %.val5459 = load i32, ptr %7, align 8, !tbaa !12
  %19 = icmp sgt i32 %.val5459, 0
  br i1 %19, label %.lr.ph61, label %.critedge.._crit_edge_crit_edge

.critedge.._crit_edge_crit_edge:                  ; preds = %.critedge
  %.pre = sext i32 %.val5459 to i64
  br label %._crit_edge

.lr.ph61:                                         ; preds = %.critedge, %.lr.ph61
  %indvars.iv64 = phi i64 [ %indvars.iv.next65, %.lr.ph61 ], [ 0, %.critedge ]
  %20 = getelementptr inbounds nuw %struct.Gia_Rpr_t_, ptr %3, i64 %indvars.iv64
  %21 = load i32, ptr %20, align 4
  %22 = and i32 %21, -268435457
  store i32 %22, ptr %20, align 4
  %indvars.iv.next65 = add nuw nsw i64 %indvars.iv64, 1
  %.val54 = load i32, ptr %7, align 8, !tbaa !12
  %23 = sext i32 %.val54 to i64
  %24 = icmp slt i64 %indvars.iv.next65, %23
  br i1 %24, label %.lr.ph61, label %._crit_edge, !llvm.loop !218

._crit_edge:                                      ; preds = %.lr.ph61, %.critedge.._crit_edge_crit_edge
  %.pre-phi = phi i64 [ %.pre, %.critedge.._crit_edge_crit_edge ], [ %23, %.lr.ph61 ]
  %25 = load ptr, ptr %2, align 8, !tbaa !49
  %26 = shl nsw i64 %.pre-phi, 2
  %bcmp = tail call i32 @bcmp(ptr %25, ptr %3, i64 %26)
  %.not43 = icmp eq i32 %bcmp, 0
  %str.str.1 = select i1 %.not43, ptr @str, ptr @str.1
  %puts = tail call i32 @puts(ptr nonnull dereferenceable(1) %str.str.1)
  %27 = load ptr, ptr %4, align 8, !tbaa !54
  %.val = load i32, ptr %7, align 8, !tbaa !12
  %28 = sext i32 %.val to i64
  %29 = shl nsw i64 %28, 2
  %bcmp45 = tail call i32 @bcmp(ptr %27, ptr %5, i64 %29)
  %.not46 = icmp eq i32 %bcmp45, 0
  %str.2.sink = select i1 %.not46, ptr @str.2, ptr @str.3
  %puts47 = tail call i32 @puts(ptr nonnull dereferenceable(1) %str.2.sink)
  %30 = getelementptr inbounds nuw i8, ptr %6, i64 192
  %31 = load ptr, ptr %30, align 8, !tbaa !49
  %.not49 = icmp eq ptr %31, null
  br i1 %.not49, label %33, label %32

32:                                               ; preds = %._crit_edge
  tail call void @free(ptr noundef nonnull %31) #31
  store ptr null, ptr %30, align 8, !tbaa !49
  br label %33

33:                                               ; preds = %._crit_edge, %32
  %34 = getelementptr inbounds nuw i8, ptr %6, i64 200
  %35 = load ptr, ptr %34, align 8, !tbaa !54
  %.not50 = icmp eq ptr %35, null
  br i1 %.not50, label %37, label %36

36:                                               ; preds = %33
  tail call void @free(ptr noundef nonnull %35) #31
  store ptr null, ptr %34, align 8, !tbaa !54
  br label %37

37:                                               ; preds = %33, %36
  %.not51 = icmp eq ptr %3, null
  br i1 %.not51, label %39, label %38

38:                                               ; preds = %37
  tail call void @free(ptr noundef nonnull %3) #31
  br label %39

39:                                               ; preds = %37, %38
  %.not52 = icmp eq ptr %5, null
  br i1 %.not52, label %41, label %40

40:                                               ; preds = %39
  tail call void @free(ptr noundef nonnull %5) #31
  br label %41

41:                                               ; preds = %39, %40
  tail call void @Gia_ManStop(ptr noundef nonnull %6) #31
  ret void
}